target datalayout = "e-m:e-p270:32:32-p271:32:32-p272:64:64-i64:64-i128:128-f80:128-n8:16:32:64-S128"
target triple = "x86_64-pc-linux-gnu"

%struct.NSVGparser = type { [128 x %struct.NSVGattrib], i32, ptr, i32, i32, ptr, ptr, ptr, ptr, float, float, float, float, i32, i32, i32, float, i8, i8 }
%struct.NSVGattrib = type { [64 x i8], [6 x float], i32, i32, float, float, float, [64 x i8], [64 x i8], float, float, [8 x float], i32, i8, i8, float, i8, float, i32, float, float, i8, i8, i8 }
%struct.NSVGcoordinate = type { float, i32 }
%struct.NSVGgradientStop = type { i32, float }
%struct.NSVGgradientData = type { [64 x i8], [64 x i8], i8, %union.anon.0, i8, i8, [6 x float], i32, ptr, ptr }
%union.anon.0 = type { %struct.NSVGradialData }
%struct.NSVGradialData = type { %struct.NSVGcoordinate, %struct.NSVGcoordinate, %struct.NSVGcoordinate, %struct.NSVGcoordinate, %struct.NSVGcoordinate }

; Function Attrs: nounwind uwtable
define internal ptr @nsvg__getAttr(ptr noundef %0) #0 {
  %2 = alloca ptr, align 8
  store ptr %0, ptr %2, align 8, !tbaa !27
  %3 = load ptr, ptr %2, align 8, !tbaa !27
  %4 = getelementptr inbounds nuw %struct.NSVGparser, ptr %3, i32 0, i32 0
  %5 = load ptr, ptr %2, align 8, !tbaa !27
  %6 = getelementptr inbounds nuw %struct.NSVGparser, ptr %5, i32 0, i32 1
  %7 = load i32, ptr %6, align 8, !tbaa !216
  %8 = sext i32 %7 to i64
  %9 = getelementptr inbounds [128 x %struct.NSVGattrib], ptr %4, i64 0, i64 %8
  ret ptr %9
}

; Function Attrs: nounwind uwtable
define internal void @nsvg__parseGradientStop(ptr noundef %0, ptr noundef %1) #0 {
  %3 = alloca ptr, align 8
  %4 = alloca ptr, align 8
  %5 = alloca ptr, align 8
  %6 = alloca ptr, align 8
  %7 = alloca ptr, align 8
  %8 = alloca i32, align 4
  %9 = alloca i32, align 4
  %10 = alloca i32, align 4
  store ptr %0, ptr %3, align 8, !tbaa !27
  store ptr %1, ptr %4, align 8, !tbaa !50
  call void @llvm.lifetime.start.p0(i64 8, ptr %5) #11
  %11 = load ptr, ptr %3, align 8, !tbaa !27
  %12 = call ptr @nsvg__getAttr(ptr noundef %11)
  store ptr %12, ptr %5, align 8, !tbaa !205
  call void @llvm.lifetime.start.p0(i64 8, ptr %6) #11
  call void @llvm.lifetime.start.p0(i64 8, ptr %7) #11
  call void @llvm.lifetime.start.p0(i64 4, ptr %8) #11
  call void @llvm.lifetime.start.p0(i64 4, ptr %9) #11
  %13 = load ptr, ptr %5, align 8, !tbaa !205
  %14 = getelementptr inbounds nuw %struct.NSVGattrib, ptr %13, i32 0, i32 20
  store float 0.000000e+00, ptr %14, align 4, !tbaa !207
  %15 = load ptr, ptr %5, align 8, !tbaa !205
  %16 = getelementptr inbounds nuw %struct.NSVGattrib, ptr %15, i32 0, i32 18
  store i32 0, ptr %16, align 4, !tbaa !208
  %17 = load ptr, ptr %5, align 8, !tbaa !205
  %18 = getelementptr inbounds nuw %struct.NSVGattrib, ptr %17, i32 0, i32 19
  store float 1.000000e+00, ptr %18, align 4, !tbaa !42
  store i32 0, ptr %8, align 4, !tbaa !10
  br label %19

19:                                               ; preds = %40, %2
  %20 = load ptr, ptr %4, align 8, !tbaa !50
  %21 = load i32, ptr %8, align 4, !tbaa !10
  %22 = sext i32 %21 to i64
  %23 = getelementptr inbounds ptr, ptr %20, i64 %22
  %24 = load ptr, ptr %23, align 8, !tbaa !4
  %25 = icmp ne ptr %24, null
  br i1 %25, label %26, label %43

26:                                               ; preds = %19
  %27 = load ptr, ptr %3, align 8, !tbaa !27
  %28 = load ptr, ptr %4, align 8, !tbaa !50
  %29 = load i32, ptr %8, align 4, !tbaa !10
  %30 = sext i32 %29 to i64
  %31 = getelementptr inbounds ptr, ptr %28, i64 %30
  %32 = load ptr, ptr %31, align 8, !tbaa !4
  %33 = load ptr, ptr %4, align 8, !tbaa !50
  %34 = load i32, ptr %8, align 4, !tbaa !10
  %35 = add nsw i32 %34, 1
  %36 = sext i32 %35 to i64
  %37 = getelementptr inbounds ptr, ptr %33, i64 %36
  %38 = load ptr, ptr %37, align 8, !tbaa !4
  %39 = call i32 @nsvg__parseAttr(ptr noundef %27, ptr noundef %32, ptr noundef %38)
  br label %40

40:                                               ; preds = %26
  %41 = load i32, ptr %8, align 4, !tbaa !10
  %42 = add nsw i32 %41, 2
  store i32 %42, ptr %8, align 4, !tbaa !10
  br label %19, !llvm.loop !209

43:                                               ; preds = %19
  %44 = load ptr, ptr %3, align 8, !tbaa !27
  %45 = getelementptr inbounds nuw %struct.NSVGparser, ptr %44, i32 0, i32 7
  %46 = load ptr, ptr %45, align 8, !tbaa !87
  store ptr %46, ptr %6, align 8, !tbaa !196
  %47 = load ptr, ptr %6, align 8, !tbaa !196
  %48 = icmp eq ptr %47, null
  br i1 %48, label %49, label %50

49:                                               ; preds = %43
  store i32 1, ptr %10, align 4
  br label %163

50:                                               ; preds = %43
  %51 = load ptr, ptr %6, align 8, !tbaa !196
  %52 = getelementptr inbounds nuw %struct.NSVGgradientData, ptr %51, i32 0, i32 7
  %53 = load i32, ptr %52, align 8, !tbaa !210
  %54 = add nsw i32 %53, 1
  store i32 %54, ptr %52, align 8, !tbaa !210
  %55 = load ptr, ptr %6, align 8, !tbaa !196
  %56 = getelementptr inbounds nuw %struct.NSVGgradientData, ptr %55, i32 0, i32 8
  %57 = load ptr, ptr %56, align 8, !tbaa !211
  %58 = load ptr, ptr %6, align 8, !tbaa !196
  %59 = getelementptr inbounds nuw %struct.NSVGgradientData, ptr %58, i32 0, i32 7
  %60 = load i32, ptr %59, align 8, !tbaa !210
  %61 = sext i32 %60 to i64
  %62 = mul i64 8, %61
  %63 = call ptr @realloc(ptr noundef %57, i64 noundef %62) #14
  %64 = load ptr, ptr %6, align 8, !tbaa !196
  %65 = getelementptr inbounds nuw %struct.NSVGgradientData, ptr %64, i32 0, i32 8
  store ptr %63, ptr %65, align 8, !tbaa !211
  %66 = load ptr, ptr %6, align 8, !tbaa !196
  %67 = getelementptr inbounds nuw %struct.NSVGgradientData, ptr %66, i32 0, i32 8
  %68 = load ptr, ptr %67, align 8, !tbaa !211
  %69 = icmp eq ptr %68, null
  br i1 %69, label %70, label %71

70:                                               ; preds = %50
  store i32 1, ptr %10, align 4
  br label %163

71:                                               ; preds = %50
  %72 = load ptr, ptr %6, align 8, !tbaa !196
  %73 = getelementptr inbounds nuw %struct.NSVGgradientData, ptr %72, i32 0, i32 7
  %74 = load i32, ptr %73, align 8, !tbaa !210
  %75 = sub nsw i32 %74, 1
  store i32 %75, ptr %9, align 4, !tbaa !10
  store i32 0, ptr %8, align 4, !tbaa !10
  br label %76

76:                                               ; preds = %99, %71
  %77 = load i32, ptr %8, align 4, !tbaa !10
  %78 = load ptr, ptr %6, align 8, !tbaa !196
  %79 = getelementptr inbounds nuw %struct.NSVGgradientData, ptr %78, i32 0, i32 7
  %80 = load i32, ptr %79, align 8, !tbaa !210
  %81 = sub nsw i32 %80, 1
  %82 = icmp slt i32 %77, %81
  br i1 %82, label %83, label %102

83:                                               ; preds = %76
  %84 = load ptr, ptr %5, align 8, !tbaa !205
  %85 = getelementptr inbounds nuw %struct.NSVGattrib, ptr %84, i32 0, i32 20
  %86 = load float, ptr %85, align 4, !tbaa !207
  %87 = load ptr, ptr %6, align 8, !tbaa !196
  %88 = getelementptr inbounds nuw %struct.NSVGgradientData, ptr %87, i32 0, i32 8
  %89 = load ptr, ptr %88, align 8, !tbaa !211
  %90 = load i32, ptr %8, align 4, !tbaa !10
  %91 = sext i32 %90 to i64
  %92 = getelementptr inbounds %struct.NSVGgradientStop, ptr %89, i64 %91
  %93 = getelementptr inbounds nuw %struct.NSVGgradientStop, ptr %92, i32 0, i32 1
  %94 = load float, ptr %93, align 4, !tbaa !161
  %95 = fcmp olt float %86, %94
  br i1 %95, label %96, label %98

96:                                               ; preds = %83
  %97 = load i32, ptr %8, align 4, !tbaa !10
  store i32 %97, ptr %9, align 4, !tbaa !10
  br label %102

98:                                               ; preds = %83
  br label %99

99:                                               ; preds = %98
  %100 = load i32, ptr %8, align 4, !tbaa !10
  %101 = add nsw i32 %100, 1
  store i32 %101, ptr %8, align 4, !tbaa !10
  br label %76, !llvm.loop !212

102:                                              ; preds = %96, %76
  %103 = load i32, ptr %9, align 4, !tbaa !10
  %104 = load ptr, ptr %6, align 8, !tbaa !196
  %105 = getelementptr inbounds nuw %struct.NSVGgradientData, ptr %104, i32 0, i32 7
  %106 = load i32, ptr %105, align 8, !tbaa !210
  %107 = sub nsw i32 %106, 1
  %108 = icmp ne i32 %103, %107
  br i1 %108, label %109, label %136

109:                                              ; preds = %102
  %110 = load ptr, ptr %6, align 8, !tbaa !196
  %111 = getelementptr inbounds nuw %struct.NSVGgradientData, ptr %110, i32 0, i32 7
  %112 = load i32, ptr %111, align 8, !tbaa !210
  %113 = sub nsw i32 %112, 1
  store i32 %113, ptr %8, align 4, !tbaa !10
  br label %114

114:                                              ; preds = %132, %109
  %115 = load i32, ptr %8, align 4, !tbaa !10
  %116 = load i32, ptr %9, align 4, !tbaa !10
  %117 = icmp sgt i32 %115, %116
  br i1 %117, label %118, label %135

118:                                              ; preds = %114
  %119 = load ptr, ptr %6, align 8, !tbaa !196
  %120 = getelementptr inbounds nuw %struct.NSVGgradientData, ptr %119, i32 0, i32 8
  %121 = load ptr, ptr %120, align 8, !tbaa !211
  %122 = load i32, ptr %8, align 4, !tbaa !10
  %123 = sext i32 %122 to i64
  %124 = getelementptr inbounds %struct.NSVGgradientStop, ptr %121, i64 %123
  %125 = load ptr, ptr %6, align 8, !tbaa !196
  %126 = getelementptr inbounds nuw %struct.NSVGgradientData, ptr %125, i32 0, i32 8
  %127 = load ptr, ptr %126, align 8, !tbaa !211
  %128 = load i32, ptr %8, align 4, !tbaa !10
  %129 = sub nsw i32 %128, 1
  %130 = sext i32 %129 to i64
  %131 = getelementptr inbounds %struct.NSVGgradientStop, ptr %127, i64 %130
  call void @llvm.memcpy.p0.p0.i64(ptr align 4 %124, ptr align 4 %131, i64 8, i1 false), !tbaa.struct !213
  br label %132

132:                                              ; preds = %118
  %133 = load i32, ptr %8, align 4, !tbaa !10
  %134 = add nsw i32 %133, -1
  store i32 %134, ptr %8, align 4, !tbaa !10
  br label %114, !llvm.loop !214

135:                                              ; preds = %114
  br label %136

136:                                              ; preds = %135, %102
  %137 = load ptr, ptr %6, align 8, !tbaa !196
  %138 = getelementptr inbounds nuw %struct.NSVGgradientData, ptr %137, i32 0, i32 8
  %139 = load ptr, ptr %138, align 8, !tbaa !211
  %140 = load i32, ptr %9, align 4, !tbaa !10
  %141 = sext i32 %140 to i64
  %142 = getelementptr inbounds %struct.NSVGgradientStop, ptr %139, i64 %141
  store ptr %142, ptr %7, align 8, !tbaa !215
  %143 = load ptr, ptr %5, align 8, !tbaa !205
  %144 = getelementptr inbounds nuw %struct.NSVGattrib, ptr %143, i32 0, i32 18
  %145 = load i32, ptr %144, align 4, !tbaa !208
  %146 = load ptr, ptr %7, align 8, !tbaa !215
  %147 = getelementptr inbounds nuw %struct.NSVGgradientStop, ptr %146, i32 0, i32 0
  store i32 %145, ptr %147, align 4, !tbaa !158
  %148 = load ptr, ptr %5, align 8, !tbaa !205
  %149 = getelementptr inbounds nuw %struct.NSVGattrib, ptr %148, i32 0, i32 19
  %150 = load float, ptr %149, align 4, !tbaa !42
  %151 = fmul float %150, 2.550000e+02
  %152 = fptoui float %151 to i32
  %153 = shl i32 %152, 24
  %154 = load ptr, ptr %7, align 8, !tbaa !215
  %155 = getelementptr inbounds nuw %struct.NSVGgradientStop, ptr %154, i32 0, i32 0
  %156 = load i32, ptr %155, align 4, !tbaa !158
  %157 = or i32 %156, %153
  store i32 %157, ptr %155, align 4, !tbaa !158
  %158 = load ptr, ptr %5, align 8, !tbaa !205
  %159 = getelementptr inbounds nuw %struct.NSVGattrib, ptr %158, i32 0, i32 20
  %160 = load float, ptr %159, align 4, !tbaa !207
  %161 = load ptr, ptr %7, align 8, !tbaa !215
  %162 = getelementptr inbounds nuw %struct.NSVGgradientStop, ptr %161, i32 0, i32 1
  store float %160, ptr %162, align 4, !tbaa !161
  store i32 0, ptr %10, align 4
  br label %163

163:                                              ; preds = %136, %70, %49
  call void @llvm.lifetime.end.p0(i64 4, ptr %9) #11
  call void @llvm.lifetime.end.p0(i64 4, ptr %8) #11
  call void @llvm.lifetime.end.p0(i64 8, ptr %7) #11
  call void @llvm.lifetime.end.p0(i64 8, ptr %6) #11
  call void @llvm.lifetime.end.p0(i64 8, ptr %5) #11
  %164 = load i32, ptr %10, align 4
  switch i32 %164, label %166 [
    i32 0, label %165
    i32 1, label %165
  ]

165:                                              ; preds = %163, %163
  ret void

166:                                              ; preds = %163
  unreachable
}