; Function Attrs: nounwind uwtable
define internal fastcc void @nsvg__parseGradientStop(ptr noundef %0, ptr noundef readonly captures(none) %1) unnamed_addr #0 {
  %3 = getelementptr inbounds nuw i8, ptr %0, i64 39936
  %4 = load i32, ptr %3, align 8, !tbaa !55
  %5 = sext i32 %4 to i64
  %6 = getelementptr inbounds [128 x %struct.NSVGattrib], ptr %0, i64 0, i64 %5
  %7 = getelementptr inbounds nuw i8, ptr %6, i64 304
  store float 0.000000e+00, ptr %7, align 4, !tbaa !208
  %8 = getelementptr inbounds nuw i8, ptr %6, i64 296
  store i32 0, ptr %8, align 4, !tbaa !209
  %9 = getelementptr inbounds nuw i8, ptr %6, i64 300
  store float 1.000000e+00, ptr %9, align 4, !tbaa !33
  %10 = load ptr, ptr %1, align 8, !tbaa !15
  %.not54 = icmp eq ptr %10, null
  br i1 %.not54, label %._crit_edge, label %.lr.ph

.lr.ph:                                           ; preds = %2, %.lr.ph
  %indvars.iv = phi i64 [ %indvars.iv.next, %.lr.ph ], [ 0, %2 ]
  %11 = phi ptr [ %17, %.lr.ph ], [ %10, %2 ]
  %12 = or disjoint i64 %indvars.iv, 1
  %13 = getelementptr inbounds nuw ptr, ptr %1, i64 %12
  %14 = load ptr, ptr %13, align 8, !tbaa !15
  %15 = tail call fastcc i32 @nsvg__parseAttr(ptr noundef %0, ptr noundef %11, ptr noundef %14)
  %indvars.iv.next = add nuw nsw i64 %indvars.iv, 2
  %16 = getelementptr inbounds nuw ptr, ptr %1, i64 %indvars.iv.next
  %17 = load ptr, ptr %16, align 8, !tbaa !15
  %.not = icmp eq ptr %17, null
  br i1 %.not, label %._crit_edge, label %.lr.ph, !llvm.loop !210

._crit_edge:                                      ; preds = %.lr.ph, %2
  %18 = getelementptr inbounds nuw i8, ptr %0, i64 39976
  %19 = load ptr, ptr %18, align 8, !tbaa !74
  %20 = icmp eq ptr %19, null
  br i1 %20, label %62, label %21

21:                                               ; preds = %._crit_edge
  %22 = getelementptr inbounds nuw i8, ptr %19, i64 200
  %23 = load i32, ptr %22, align 8, !tbaa !211
  %24 = add nsw i32 %23, 1
  store i32 %24, ptr %22, align 8, !tbaa !211
  %25 = getelementptr inbounds nuw i8, ptr %19, i64 208
  %26 = load ptr, ptr %25, align 8, !tbaa !78
  %27 = sext i32 %24 to i64
  %28 = shl nsw i64 %27, 3
  %29 = tail call ptr @realloc(ptr noundef %26, i64 noundef %28) #33
  store ptr %29, ptr %25, align 8, !tbaa !78
  %30 = icmp eq ptr %29, null
  br i1 %30, label %62, label %31

31:                                               ; preds = %21
  %32 = load i32, ptr %22, align 8, !tbaa !211
  %33 = add i32 %32, -1
  %34 = icmp sgt i32 %32, 1
  %.pre71 = load float, ptr %7, align 4, !tbaa !208
  br i1 %34, label %.lr.ph58, label %.thread

.lr.ph58:                                         ; preds = %31
  %wide.trip.count = zext nneg i32 %33 to i64
  br label %35

35:                                               ; preds = %.lr.ph58, %39
  %indvars.iv64 = phi i64 [ 0, %.lr.ph58 ], [ %indvars.iv.next65, %39 ]
  %36 = getelementptr inbounds nuw %struct.NSVGgradientStop, ptr %29, i64 %indvars.iv64, i32 1
  %37 = load float, ptr %36, align 4, !tbaa !180
  %38 = fcmp olt float %.pre71, %37
  br i1 %38, label %40, label %39

39:                                               ; preds = %35
  %indvars.iv.next65 = add nuw nsw i64 %indvars.iv64, 1
  %exitcond.not = icmp eq i64 %indvars.iv.next65, %wide.trip.count
  br i1 %exitcond.not, label %.thread, label %35, !llvm.loop !212

40:                                               ; preds = %35
  %41 = trunc nuw nsw i64 %indvars.iv64 to i32
  %42 = icmp sgt i32 %33, %41
  br i1 %42, label %.lr.ph60.preheader, label %.thread

.lr.ph60.preheader:                               ; preds = %40
  %43 = zext nneg i32 %32 to i64
  %44 = add nsw i64 %43, -1
  %sext = shl i64 %indvars.iv64, 32
  %45 = ashr exact i64 %sext, 32
  br label %.lr.ph60

.lr.ph60:                                         ; preds = %.lr.ph60.preheader, %.lr.ph60
  %indvars.iv67 = phi i64 [ %44, %.lr.ph60.preheader ], [ %indvars.iv.next68, %.lr.ph60 ]
  %46 = load ptr, ptr %25, align 8, !tbaa !78
  %47 = getelementptr inbounds %struct.NSVGgradientStop, ptr %46, i64 %indvars.iv67
  %48 = getelementptr i8, ptr %47, i64 -8
  %49 = load i64, ptr %48, align 4
  store i64 %49, ptr %47, align 4
  %indvars.iv.next68 = add nsw i64 %indvars.iv67, -1
  %50 = icmp sgt i64 %indvars.iv.next68, %45
  br i1 %50, label %.lr.ph60, label %.thread.loopexit, !llvm.loop !213

.thread.loopexit:                                 ; preds = %.lr.ph60
  %.pre = load ptr, ptr %25, align 8, !tbaa !78
  %.pre70 = load float, ptr %7, align 4, !tbaa !208
  br label %.thread

.thread:                                          ; preds = %39, %.thread.loopexit, %31, %40
  %51 = phi float [ %.pre71, %40 ], [ %.pre71, %31 ], [ %.pre70, %.thread.loopexit ], [ %.pre71, %39 ]
  %52 = phi ptr [ %29, %40 ], [ %29, %31 ], [ %.pre, %.thread.loopexit ], [ %29, %39 ]
  %.051 = phi i32 [ %41, %40 ], [ %33, %31 ], [ %41, %.thread.loopexit ], [ %33, %39 ]
  %53 = sext i32 %.051 to i64
  %54 = getelementptr inbounds %struct.NSVGgradientStop, ptr %52, i64 %53
  %55 = load i32, ptr %8, align 4, !tbaa !209
  %56 = load float, ptr %9, align 4, !tbaa !33
  %57 = fmul float %56, 2.550000e+02
  %58 = fptoui float %57 to i32
  %59 = shl i32 %58, 24
  %60 = or i32 %59, %55
  store i32 %60, ptr %54, align 4, !tbaa !177
  %61 = getelementptr inbounds nuw i8, ptr %54, i64 4
  store float %51, ptr %61, align 4, !tbaa !180
  br label %62

62:                                               ; preds = %21, %._crit_edge, %.thread
  ret void
}